(lp0
S'Samsung G930FD Galaxy S7 32GB (Pink Gold)\n                    '
p1
aS'Xiaomi Redmi 3 (Fashion Dark Gray)\n                    '
p2
aS'Xiaomi Redmi Note 3 Pro 32GB (Gray)\n                    '
p3
aS'Apple iPhone 5S 16GB (Space Gray)\n                    '
p4
aS'Xiaomi Redmi 3 Pro (Gold)\n                    '
p5
aS'Meizu M3 Note 16GB (Gray)\n                    '
p6
aS'Samsung G930FD Galaxy S7 32GB (Black)\n                    '
p7
aS'DOOGEE X5 (Black)\n                    '
p8
aS'Xiaomi Redmi Note 3 Pro 16GB (Gray)\n                    '
p9
aS'Apple iPhone 6 16GB (Space Gray)\n                    '
p10
aS'Meizu M3 Note 32GB (Gray)\n                    '
p11
aS'Apple iPhone 5S 16GB (Gold)\n                    '
p12
aS'Xiaomi Redmi Note 3 Pro 32GB (Gold)\n                    '
p13
aS'Xiaomi Redmi Note 3 Pro 16GB (Gold)\n                    '
p14
aS'OnePlus 3\n                    '
p15
aS'Xiaomi Redmi Note 3 32GB (Gray)\n                    '
p16
aS'Meizu M2 (Gray)\n                    '
p17
aS'Apple iPhone 5 16GB (Black)\n                    '
p18
aS'Apple iPhone 6s 64GB (Space Gray)\n                    '
p19
aS'Xiaomi Redmi Note 3 Pro 32GB (Silver)\n                    '
p20
aS'Lenovo K3 Note K50-T5 (Yellow)\n                    '
p21
aS'Xiaomi Redmi 3 (Fashion Silver)\n                    '
p22
aS'Meizu M3 16GB (Gray)\n                    '
p23
aS'Xiaomi Mi4c 16GB (Black)\n                    '
p24
aS'Xiaomi Redmi 3 Pro (Gray)\n                    '
p25
aS'Samsung G930FD Galaxy S7 32GB (Pink Gold)\n                    '
p26
aS'Xiaomi Redmi 3 (Fashion Dark Gray)\n                    '
p27
aS'Xiaomi Redmi Note 3 Pro 32GB (Gray)\n                    '
p28
aS'Apple iPhone 5S 16GB (Space Gray)\n                    '
p29
aS'Xiaomi Redmi 3 Pro (Gold)\n                    '
p30
aS'Meizu M3 Note 16GB (Gray)\n                    '
p31
aS'Samsung G930FD Galaxy S7 32GB (Black)\n                    '
p32
aS'DOOGEE X5 (Black)\n                    '
p33
aS'Xiaomi Redmi Note 3 Pro 16GB (Gray)\n                    '
p34
aS'Apple iPhone 6 16GB (Space Gray)\n                    '
p35
aS'Meizu M3 Note 32GB (Gray)\n                    '
p36
aS'Apple iPhone 5S 16GB (Gold)\n                    '
p37
aS'Xiaomi Redmi Note 3 Pro 32GB (Gold)\n                    '
p38
aS'Xiaomi Redmi Note 3 Pro 16GB (Gold)\n                    '
p39
aS'OnePlus 3\n                    '
p40
aS'Xiaomi Redmi Note 3 32GB (Gray)\n                    '
p41
aS'Meizu M2 (Gray)\n                    '
p42
aS'Apple iPhone 5 16GB (Black)\n                    '
p43
aS'Apple iPhone 6s 64GB (Space Gray)\n                    '
p44
aS'Xiaomi Redmi Note 3 Pro 32GB (Silver)\n                    '
p45
aS'Lenovo K3 Note K50-T5 (Yellow)\n                    '
p46
aS'Xiaomi Redmi 3 (Fashion Silver)\n                    '
p47
aS'Meizu M3 16GB (Gray)\n                    '
p48
aS'Xiaomi Mi4c 16GB (Black)\n                    '
p49
aS'Xiaomi Redmi 3 Pro (Gray)\n                    '
p50
a.